target datalayout = "e-m:e-p270:32:32-p271:32:32-p272:64:64-i64:64-i128:128-f80:128-n8:16:32:64-S128"
target triple = "x86_64-pc-linux-gnu"

%struct.ThreadData = type { ptr, ptr }
%struct.AVFilterLink = type { ptr, ptr, ptr, ptr, i32, i32, i32, i32, %struct.AVRational, i32, i32, i32, %struct.AVChannelLayout, %struct.AVRational, ptr, i32, %struct.AVFilterFormatsConfig, %struct.AVFilterFormatsConfig }
%struct.AVChannelLayout = type { i32, i32, %union.anon.1, ptr }
%union.anon.1 = type { i64 }
%struct.AVRational = type { i32, i32 }
%struct.AVFilterFormatsConfig = type { ptr, ptr, ptr, ptr, ptr }
%struct.AVFilterContext = type { ptr, ptr, ptr, ptr, ptr, i32, ptr, ptr, i32, ptr, ptr, i32, i32, ptr, ptr, ptr, ptr, i32, ptr, i32, i32 }
%struct.ConvolutionContext = type { ptr, [4 x ptr], [4 x float], [4 x float], [4 x i32], float, float, i32, [4 x float], [4 x i32], i32, i32, i32, i32, i32, [4 x i32], [4 x i32], [4 x [49 x i32]], [4 x i32], [4 x i32], [4 x ptr], [4 x ptr] }

; Function Attrs: nounwind uwtable
define internal i32 @filter_frame(ptr noundef %0, ptr noundef %1) #0 {
  %3 = alloca i32, align 4
  %4 = alloca ptr, align 8
  %5 = alloca ptr, align 8
  %6 = alloca ptr, align 8
  %7 = alloca ptr, align 8
  %8 = alloca ptr, align 8
  %9 = alloca ptr, align 8
  %10 = alloca %struct.ThreadData, align 8
  %11 = alloca i32, align 4
  store ptr %0, ptr %4, align 8, !tbaa !13
  store ptr %1, ptr %5, align 8, !tbaa !15
  call void @llvm.lifetime.start.p0(i64 8, ptr %6) #10
  %12 = load ptr, ptr %4, align 8, !tbaa !13
  %13 = getelementptr inbounds nuw %struct.AVFilterLink, ptr %12, i32 0, i32 2
  %14 = load ptr, ptr %13, align 8, !tbaa !17
  store ptr %14, ptr %6, align 8, !tbaa !4
  call void @llvm.lifetime.start.p0(i64 8, ptr %7) #10
  %15 = load ptr, ptr %6, align 8, !tbaa !4
  %16 = getelementptr inbounds nuw %struct.AVFilterContext, ptr %15, i32 0, i32 9
  %17 = load ptr, ptr %16, align 8, !tbaa !27
  store ptr %17, ptr %7, align 8, !tbaa !36
  call void @llvm.lifetime.start.p0(i64 8, ptr %8) #10
  %18 = load ptr, ptr %6, align 8, !tbaa !4
  %19 = getelementptr inbounds nuw %struct.AVFilterContext, ptr %18, i32 0, i32 7
  %20 = load ptr, ptr %19, align 8, !tbaa !38
  %21 = getelementptr inbounds ptr, ptr %20, i64 0
  %22 = load ptr, ptr %21, align 8, !tbaa !13
  store ptr %22, ptr %8, align 8, !tbaa !13
  call void @llvm.lifetime.start.p0(i64 8, ptr %9) #10
  call void @llvm.lifetime.start.p0(i64 16, ptr %10) #10
  %23 = load ptr, ptr %8, align 8, !tbaa !13
  %24 = load ptr, ptr %8, align 8, !tbaa !13
  %25 = getelementptr inbounds nuw %struct.AVFilterLink, ptr %24, i32 0, i32 6
  %26 = load i32, ptr %25, align 8, !tbaa !39
  %27 = load ptr, ptr %8, align 8, !tbaa !13
  %28 = getelementptr inbounds nuw %struct.AVFilterLink, ptr %27, i32 0, i32 7
  %29 = load i32, ptr %28, align 4, !tbaa !40
  %30 = call ptr @ff_get_video_buffer(ptr noundef %23, i32 noundef %26, i32 noundef %29)
  store ptr %30, ptr %9, align 8, !tbaa !15
  %31 = load ptr, ptr %9, align 8, !tbaa !15
  %32 = icmp ne ptr %31, null
  br i1 %32, label %34, label %33

33:                                               ; preds = %2
  call void @av_frame_free(ptr noundef %5)
  store i32 -12, ptr %3, align 4
  store i32 1, ptr %11, align 4
  br label %100

34:                                               ; preds = %2
  %35 = load ptr, ptr %9, align 8, !tbaa !15
  %36 = load ptr, ptr %5, align 8, !tbaa !15
  %37 = call i32 @av_frame_copy_props(ptr noundef %35, ptr noundef %36)
  %38 = load ptr, ptr %5, align 8, !tbaa !15
  %39 = getelementptr inbounds nuw %struct.ThreadData, ptr %10, i32 0, i32 0
  store ptr %38, ptr %39, align 8, !tbaa !41
  %40 = load ptr, ptr %9, align 8, !tbaa !15
  %41 = getelementptr inbounds nuw %struct.ThreadData, ptr %10, i32 0, i32 1
  store ptr %40, ptr %41, align 8, !tbaa !43
  %42 = load ptr, ptr %6, align 8, !tbaa !4
  %43 = load ptr, ptr %7, align 8, !tbaa !36
  %44 = getelementptr inbounds nuw %struct.ConvolutionContext, ptr %43, i32 0, i32 16
  %45 = getelementptr inbounds [4 x i32], ptr %44, i64 0, i64 1
  %46 = load i32, ptr %45, align 4, !tbaa !11
  %47 = load ptr, ptr %7, align 8, !tbaa !36
  %48 = getelementptr inbounds nuw %struct.ConvolutionContext, ptr %47, i32 0, i32 15
  %49 = getelementptr inbounds [4 x i32], ptr %48, i64 0, i64 1
  %50 = load i32, ptr %49, align 4, !tbaa !11
  %51 = icmp sgt i32 %46, %50
  br i1 %51, label %52, label %57

52:                                               ; preds = %34
  %53 = load ptr, ptr %7, align 8, !tbaa !36
  %54 = getelementptr inbounds nuw %struct.ConvolutionContext, ptr %53, i32 0, i32 15
  %55 = getelementptr inbounds [4 x i32], ptr %54, i64 0, i64 1
  %56 = load i32, ptr %55, align 4, !tbaa !11
  br label %62

57:                                               ; preds = %34
  %58 = load ptr, ptr %7, align 8, !tbaa !36
  %59 = getelementptr inbounds nuw %struct.ConvolutionContext, ptr %58, i32 0, i32 16
  %60 = getelementptr inbounds [4 x i32], ptr %59, i64 0, i64 1
  %61 = load i32, ptr %60, align 4, !tbaa !11
  br label %62

62:                                               ; preds = %57, %52
  %63 = phi i32 [ %56, %52 ], [ %61, %57 ]
  %64 = load ptr, ptr %7, align 8, !tbaa !36
  %65 = getelementptr inbounds nuw %struct.ConvolutionContext, ptr %64, i32 0, i32 14
  %66 = load i32, ptr %65, align 4, !tbaa !44
  %67 = icmp sgt i32 %63, %66
  br i1 %67, label %68, label %72

68:                                               ; preds = %62
  %69 = load ptr, ptr %7, align 8, !tbaa !36
  %70 = getelementptr inbounds nuw %struct.ConvolutionContext, ptr %69, i32 0, i32 14
  %71 = load i32, ptr %70, align 4, !tbaa !44
  br label %94

72:                                               ; preds = %62
  %73 = load ptr, ptr %7, align 8, !tbaa !36
  %74 = getelementptr inbounds nuw %struct.ConvolutionContext, ptr %73, i32 0, i32 16
  %75 = getelementptr inbounds [4 x i32], ptr %74, i64 0, i64 1
  %76 = load i32, ptr %75, align 4, !tbaa !11
  %77 = load ptr, ptr %7, align 8, !tbaa !36
  %78 = getelementptr inbounds nuw %struct.ConvolutionContext, ptr %77, i32 0, i32 15
  %79 = getelementptr inbounds [4 x i32], ptr %78, i64 0, i64 1
  %80 = load i32, ptr %79, align 4, !tbaa !11
  %81 = icmp sgt i32 %76, %80
  br i1 %81, label %82, label %87

82:                                               ; preds = %72
  %83 = load ptr, ptr %7, align 8, !tbaa !36
  %84 = getelementptr inbounds nuw %struct.ConvolutionContext, ptr %83, i32 0, i32 15
  %85 = getelementptr inbounds [4 x i32], ptr %84, i64 0, i64 1
  %86 = load i32, ptr %85, align 4, !tbaa !11
  br label %92

87:                                               ; preds = %72
  %88 = load ptr, ptr %7, align 8, !tbaa !36
  %89 = getelementptr inbounds nuw %struct.ConvolutionContext, ptr %88, i32 0, i32 16
  %90 = getelementptr inbounds [4 x i32], ptr %89, i64 0, i64 1
  %91 = load i32, ptr %90, align 4, !tbaa !11
  br label %92

92:                                               ; preds = %87, %82
  %93 = phi i32 [ %86, %82 ], [ %91, %87 ]
  br label %94

94:                                               ; preds = %92, %68
  %95 = phi i32 [ %71, %68 ], [ %93, %92 ]
  %96 = call i32 @ff_filter_execute(ptr noundef %42, ptr noundef @filter_slice, ptr noundef %10, ptr noundef null, i32 noundef %95)
  call void @av_frame_free(ptr noundef %5)
  %97 = load ptr, ptr %8, align 8, !tbaa !13
  %98 = load ptr, ptr %9, align 8, !tbaa !15
  %99 = call i32 @ff_filter_frame(ptr noundef %97, ptr noundef %98)
  store i32 %99, ptr %3, align 4
  store i32 1, ptr %11, align 4
  br label %100

100:                                              ; preds = %94, %33
  call void @llvm.lifetime.end.p0(i64 16, ptr %10) #10
  call void @llvm.lifetime.end.p0(i64 8, ptr %9) #10
  call void @llvm.lifetime.end.p0(i64 8, ptr %8) #10
  call void @llvm.lifetime.end.p0(i64 8, ptr %7) #10
  call void @llvm.lifetime.end.p0(i64 8, ptr %6) #10
  %101 = load i32, ptr %3, align 4
  ret i32 %101
}