; Function Attrs: nounwind uwtable
define internal i32 @filter_frame(ptr noundef readonly captures(none) %0, ptr noundef %1) #0 {
  %3 = alloca ptr, align 8
  %4 = alloca %struct.ThreadData, align 8
  store ptr %1, ptr %3, align 8, !tbaa !4
  %5 = getelementptr inbounds nuw i8, ptr %0, i64 16
  %6 = load ptr, ptr %5, align 8, !tbaa !9
  %7 = getelementptr inbounds nuw i8, ptr %6, i64 72
  %8 = load ptr, ptr %7, align 8, !tbaa !21
  %9 = getelementptr inbounds nuw i8, ptr %6, i64 56
  %10 = load ptr, ptr %9, align 8, !tbaa !31
  %11 = load ptr, ptr %10, align 8, !tbaa !32
  call void @llvm.lifetime.start.p0(i64 16, ptr nonnull %4) #12
  %12 = getelementptr inbounds nuw i8, ptr %11, i64 40
  %13 = load i32, ptr %12, align 8, !tbaa !34
  %14 = getelementptr inbounds nuw i8, ptr %11, i64 44
  %15 = load i32, ptr %14, align 4, !tbaa !35
  %16 = tail call ptr @ff_get_video_buffer(ptr noundef %11, i32 noundef %13, i32 noundef %15) #12
  %.not = icmp eq ptr %16, null
  br i1 %.not, label %17, label %18

17:                                               ; preds = %2
  call void @av_frame_free(ptr noundef nonnull %3) #12
  br label %29

18:                                               ; preds = %2
  %19 = tail call i32 @av_frame_copy_props(ptr noundef nonnull %16, ptr noundef %1) #12
  store ptr %1, ptr %4, align 8, !tbaa !36
  %20 = getelementptr inbounds nuw i8, ptr %4, i64 8
  store ptr %16, ptr %20, align 8, !tbaa !38
  %21 = getelementptr inbounds nuw i8, ptr %8, i64 172
  %22 = load i32, ptr %21, align 4, !tbaa !39
  %23 = getelementptr inbounds nuw i8, ptr %8, i64 156
  %24 = load i32, ptr %23, align 4, !tbaa !39
  %. = tail call i32 @llvm.smin.i32(i32 %22, i32 %24)
  %25 = getelementptr inbounds nuw i8, ptr %8, i64 148
  %26 = load i32, ptr %25, align 4, !tbaa !40
  %spec.select = tail call i32 @llvm.smin.i32(i32 %., i32 %26)
  %27 = call i32 @ff_filter_execute(ptr noundef nonnull %6, ptr noundef nonnull @filter_slice, ptr noundef nonnull %4, ptr noundef null, i32 noundef %spec.select) #12
  call void @av_frame_free(ptr noundef nonnull %3) #12
  %28 = call i32 @ff_filter_frame(ptr noundef nonnull %11, ptr noundef nonnull %16) #12
  br label %29

29:                                               ; preds = %18, %17
  %.0 = phi i32 [ %28, %18 ], [ -12, %17 ]
  call void @llvm.lifetime.end.p0(i64 16, ptr nonnull %4) #12
  ret i32 %.0
}